target datalayout = "e-m:e-p270:32:32-p271:32:32-p272:64:64-i64:64-i128:128-f80:128-n8:16:32:64-S128"
target triple = "x86_64-pc-linux-gnu"

%"class.std::__1::basic_string.2" = type { %"union.std::__1::basic_string<wchar_t>::__rep" }
%"union.std::__1::basic_string<wchar_t>::__rep" = type { %"struct.std::__1::basic_string<wchar_t>::__long" }
%"struct.std::__1::basic_string<wchar_t>::__long" = type { %struct.anon.4, i64, ptr }
%struct.anon.4 = type { i64 }

@__dso_handle = external hidden global i8
@_ZZNKSt3__120__time_get_c_storageIwE3__cEvE1s = internal global %"class.std::__1::basic_string.2" zeroinitializer, align 8
@_ZGVZNKSt3__120__time_get_c_storageIwE3__cEvE1s = internal global i64 0, align 8
@.str.50 = private unnamed_addr constant [21 x i32] [i32 37, i32 97, i32 32, i32 37, i32 98, i32 32, i32 37, i32 100, i32 32, i32 37, i32 72, i32 58, i32 37, i32 77, i32 58, i32 37, i32 83, i32 32, i32 37, i32 89, i32 0], align 4

; Function Attrs: mustprogress uwtable
define dso_local noundef nonnull align 8 dereferenceable(24) ptr @_ZNKSt3__120__time_get_c_storageIwE3__cEv(ptr noundef nonnull align 8 dereferenceable(8) %0) unnamed_addr #2 align 2 personality ptr @__gxx_personality_v0 {
  %2 = alloca ptr, align 8
  %3 = alloca ptr, align 8
  %4 = alloca i32, align 4
  store ptr %0, ptr %2, align 8, !tbaa !621
  %5 = load atomic i8, ptr @_ZGVZNKSt3__120__time_get_c_storageIwE3__cEvE1s acquire, align 8
  %6 = icmp eq i8 %5, 0
  br i1 %6, label %7, label %13, !prof !104

7:                                                ; preds = %1
  %8 = call i32 @__cxa_guard_acquire(ptr @_ZGVZNKSt3__120__time_get_c_storageIwE3__cEvE1s) #13
  %9 = icmp ne i32 %8, 0
  br i1 %9, label %10, label %13

10:                                               ; preds = %7
  invoke void @_ZNSt3__112basic_stringIwNS_11char_traitsIwEENS_9allocatorIwEEEC2B8ne210000ILi0EEEPKw(ptr noundef nonnull align 8 dereferenceable(24) @_ZZNKSt3__120__time_get_c_storageIwE3__cEvE1s, ptr noundef @.str.50)
          to label %11 unwind label %14

11:                                               ; preds = %10
  %12 = call i32 @__cxa_atexit(ptr @_ZNSt3__112basic_stringIwNS_11char_traitsIwEENS_9allocatorIwEEED2Ev, ptr @_ZZNKSt3__120__time_get_c_storageIwE3__cEvE1s, ptr @__dso_handle) #13
  call void @__cxa_guard_release(ptr @_ZGVZNKSt3__120__time_get_c_storageIwE3__cEvE1s) #13
  br label %13

13:                                               ; preds = %11, %7, %1
  ret ptr @_ZZNKSt3__120__time_get_c_storageIwE3__cEvE1s

14:                                               ; preds = %10
  %15 = landingpad { ptr, i32 }
          cleanup
  %16 = extractvalue { ptr, i32 } %15, 0
  store ptr %16, ptr %3, align 8
  %17 = extractvalue { ptr, i32 } %15, 1
  store i32 %17, ptr %4, align 4
  call void @__cxa_guard_abort(ptr @_ZGVZNKSt3__120__time_get_c_storageIwE3__cEvE1s) #13
  br label %18

18:                                               ; preds = %14
  %19 = load ptr, ptr %3, align 8
  %20 = load i32, ptr %4, align 4
  %21 = insertvalue { ptr, i32 } poison, ptr %19, 0
  %22 = insertvalue { ptr, i32 } %21, i32 %20, 1
  resume { ptr, i32 } %22
}