; Function Attrs: mustprogress uwtable
define dso_local noundef nonnull align 8 dereferenceable(24) ptr @_ZNKSt3__120__time_get_c_storageIwE3__cEv(ptr nonnull readnone align 8 captures(none) %0) unnamed_addr #2 align 2 personality ptr @__gxx_personality_v0 {
  %2 = load atomic i8, ptr @_ZGVZNKSt3__120__time_get_c_storageIwE3__cEvE1s acquire, align 8
  %3 = icmp eq i8 %2, 0
  br i1 %3, label %4, label %9, !prof !81

4:                                                ; preds = %1
  %5 = tail call i32 @__cxa_guard_acquire(ptr nonnull @_ZGVZNKSt3__120__time_get_c_storageIwE3__cEvE1s) #45
  %.not = icmp eq i32 %5, 0
  br i1 %.not, label %9, label %6

6:                                                ; preds = %4
  invoke void @_ZNSt3__112basic_stringIwNS_11char_traitsIwEENS_9allocatorIwEEEC2B8ne210000ILi0EEEPKw(ptr noundef nonnull align 8 dereferenceable(24) @_ZZNKSt3__120__time_get_c_storageIwE3__cEvE1s, ptr noundef nonnull @.str.50)
          to label %7 unwind label %10

7:                                                ; preds = %6
  %8 = tail call i32 @__cxa_atexit(ptr nonnull @_ZNSt3__112basic_stringIwNS_11char_traitsIwEENS_9allocatorIwEEED2Ev, ptr nonnull @_ZZNKSt3__120__time_get_c_storageIwE3__cEvE1s, ptr nonnull @__dso_handle) #45
  tail call void @__cxa_guard_release(ptr nonnull @_ZGVZNKSt3__120__time_get_c_storageIwE3__cEvE1s) #45
  br label %9

9:                                                ; preds = %7, %4, %1
  ret ptr @_ZZNKSt3__120__time_get_c_storageIwE3__cEvE1s

10:                                               ; preds = %6
  %11 = landingpad { ptr, i32 }
          cleanup
  tail call void @__cxa_guard_abort(ptr nonnull @_ZGVZNKSt3__120__time_get_c_storageIwE3__cEvE1s) #45
  resume { ptr, i32 } %11
}